target datalayout = "e-m:e-p270:32:32-p271:32:32-p272:64:64-i64:64-i128:128-f80:128-n8:16:32:64-S128"
target triple = "x86_64-unknown-linux-gnu"

%"class.std::vector.76" = type { %"struct.std::_Vector_base.77" }
%"struct.std::_Vector_base.77" = type { %"struct.std::_Vector_base<aiVector2t<float>, std::allocator<aiVector2t<float>>>::_Vector_impl" }
%"struct.std::_Vector_base<aiVector2t<float>, std::allocator<aiVector2t<float>>>::_Vector_impl" = type { %"struct.std::_Vector_base<aiVector2t<float>, std::allocator<aiVector2t<float>>>::_Vector_impl_data" }
%"struct.std::_Vector_base<aiVector2t<float>, std::allocator<aiVector2t<float>>>::_Vector_impl_data" = type { ptr, ptr, ptr }
%"class.std::vector.81" = type { %"struct.std::_Vector_base.82" }
%"struct.std::_Vector_base.82" = type { %"struct.std::_Vector_base<aiColor4t<float>, std::allocator<aiColor4t<float>>>::_Vector_impl" }
%"struct.std::_Vector_base<aiColor4t<float>, std::allocator<aiColor4t<float>>>::_Vector_impl" = type { %"struct.std::_Vector_base<aiColor4t<float>, std::allocator<aiColor4t<float>>>::_Vector_impl_data" }
%"struct.std::_Vector_base<aiColor4t<float>, std::allocator<aiColor4t<float>>>::_Vector_impl_data" = type { ptr, ptr, ptr }
%"class.Assimp::FBX::Geometry" = type { %"class.Assimp::FBX::Object", ptr, %"class.std::unordered_set" }
%"class.Assimp::FBX::Object" = type { ptr, ptr, %"class.std::__cxx11::basic_string", i64 }
%"class.std::__cxx11::basic_string" = type { %"struct.std::__cxx11::basic_string<char>::_Alloc_hider", i64, %union.anon }
%"struct.std::__cxx11::basic_string<char>::_Alloc_hider" = type { ptr }
%union.anon = type { i64, [8 x i8] }
%"class.std::unordered_set" = type { %"class.std::_Hashtable" }
%"class.std::_Hashtable" = type { ptr, i64, %"struct.std::__detail::_Hash_node_base", i64, %"struct.std::__detail::_Prime_rehash_policy", ptr }
%"struct.std::__detail::_Hash_node_base" = type { ptr }
%"struct.std::__detail::_Prime_rehash_policy" = type { float, i64 }
%"class.std::vector.66" = type { %"struct.std::_Vector_base.67" }
%"struct.std::_Vector_base.67" = type { %"struct.std::_Vector_base<aiVector3t<float>, std::allocator<aiVector3t<float>>>::_Vector_impl" }
%"struct.std::_Vector_base<aiVector3t<float>, std::allocator<aiVector3t<float>>>::_Vector_impl" = type { %"struct.std::_Vector_base<aiVector3t<float>, std::allocator<aiVector3t<float>>>::_Vector_impl_data" }
%"struct.std::_Vector_base<aiVector3t<float>, std::allocator<aiVector3t<float>>>::_Vector_impl_data" = type { ptr, ptr, ptr }
%"class.std::vector.61" = type { %"struct.std::_Vector_base.62" }
%"struct.std::_Vector_base.62" = type { %"struct.std::_Vector_base<int, std::allocator<int>>::_Vector_impl" }
%"struct.std::_Vector_base<int, std::allocator<int>>::_Vector_impl" = type { %"struct.std::_Vector_base<int, std::allocator<int>>::_Vector_impl_data" }
%"struct.std::_Vector_base<int, std::allocator<int>>::_Vector_impl_data" = type { ptr, ptr, ptr }
%"class.Assimp::FBX::MeshGeometry" = type { %"class.Assimp::FBX::Geometry", %"class.std::vector.61", %"class.std::vector.66", %"class.std::vector.71", %"class.std::vector.71", %"class.std::vector.66", %"class.std::vector.66", %"class.std::vector.66", [8 x %"class.std::__cxx11::basic_string"], [8 x %"class.std::vector.76"], [8 x %"class.std::vector.81"], %"class.std::vector.71", %"class.std::vector.71", %"class.std::vector.71" }
%"class.std::vector.71" = type { %"struct.std::_Vector_base.72" }
%"struct.std::_Vector_base.72" = type { %"struct.std::_Vector_base<unsigned int, std::allocator<unsigned int>>::_Vector_impl" }
%"struct.std::_Vector_base<unsigned int, std::allocator<unsigned int>>::_Vector_impl" = type { %"struct.std::_Vector_base<unsigned int, std::allocator<unsigned int>>::_Vector_impl_data" }
%"struct.std::_Vector_base<unsigned int, std::allocator<unsigned int>>::_Vector_impl_data" = type { ptr, ptr, ptr }

@.str.40 = private unnamed_addr constant [7 x i8] c"Colors\00", align 1
@.str.41 = private unnamed_addr constant [11 x i8] c"ColorIndex\00", align 1

; Function Attrs: mustprogress nounwind uwtable
define linkonce_odr hidden noundef i64 @_ZNKSt6vectorI10aiVector3tIfESaIS1_EE4sizeEv(ptr noundef nonnull align 8 dereferenceable(24) %this) #0 comdat align 2 {
entry:
  %this.addr = alloca ptr, align 8
  store ptr %this, ptr %this.addr, align 8
  %this1 = load ptr, ptr %this.addr, align 8
  %_M_impl = getelementptr inbounds %"struct.std::_Vector_base.67", ptr %this1, i32 0, i32 0
  %_M_finish = getelementptr inbounds %"struct.std::_Vector_base<aiVector3t<float>, std::allocator<aiVector3t<float>>>::_Vector_impl_data", ptr %_M_impl, i32 0, i32 1
  %0 = load ptr, ptr %_M_finish, align 8
  %_M_impl2 = getelementptr inbounds %"struct.std::_Vector_base.67", ptr %this1, i32 0, i32 0
  %_M_start = getelementptr inbounds %"struct.std::_Vector_base<aiVector3t<float>, std::allocator<aiVector3t<float>>>::_Vector_impl_data", ptr %_M_impl2, i32 0, i32 0
  %1 = load ptr, ptr %_M_start, align 8
  %sub.ptr.lhs.cast = ptrtoint ptr %0 to i64
  %sub.ptr.rhs.cast = ptrtoint ptr %1 to i64
  %sub.ptr.sub = sub i64 %sub.ptr.lhs.cast, %sub.ptr.rhs.cast
  %sub.ptr.div = sdiv exact i64 %sub.ptr.sub, 12
  ret i64 %sub.ptr.div
}

; Function Attrs: mustprogress uwtable
define hidden void @_ZN6Assimp3FBX12MeshGeometry20ReadVertexDataColorsERSt6vectorI9aiColor4tIfESaIS4_EERKNS0_5ScopeERKNSt7__cxx1112basic_stringIcSt11char_traitsIcESaIcEEESI_(ptr noundef nonnull align 8 dereferenceable(1000) %this, ptr noundef nonnull align 8 dereferenceable(24) %colors_out, ptr noundef nonnull align 8 dereferenceable(48) %source, ptr noundef nonnull align 8 dereferenceable(32) %MappingInformationType, ptr noundef nonnull align 8 dereferenceable(32) %ReferenceInformationType) #2 align 2 {
entry:
  %this.addr = alloca ptr, align 8
  %colors_out.addr = alloca ptr, align 8
  %source.addr = alloca ptr, align 8
  %MappingInformationType.addr = alloca ptr, align 8
  %ReferenceInformationType.addr = alloca ptr, align 8
  store ptr %this, ptr %this.addr, align 8
  store ptr %colors_out, ptr %colors_out.addr, align 8
  store ptr %source, ptr %source.addr, align 8
  store ptr %MappingInformationType, ptr %MappingInformationType.addr, align 8
  store ptr %ReferenceInformationType, ptr %ReferenceInformationType.addr, align 8
  %this1 = load ptr, ptr %this.addr, align 8
  %0 = load ptr, ptr %colors_out.addr, align 8
  %1 = load ptr, ptr %source.addr, align 8
  %2 = load ptr, ptr %MappingInformationType.addr, align 8
  %3 = load ptr, ptr %ReferenceInformationType.addr, align 8
  %m_vertices = getelementptr inbounds %"class.Assimp::FBX::MeshGeometry", ptr %this1, i32 0, i32 2
  %call = call noundef i64 @_ZNKSt6vectorI10aiVector3tIfESaIS1_EE4sizeEv(ptr noundef nonnull align 8 dereferenceable(24) %m_vertices) #7
  %m_mapping_counts = getelementptr inbounds %"class.Assimp::FBX::MeshGeometry", ptr %this1, i32 0, i32 11
  %m_mapping_offsets = getelementptr inbounds %"class.Assimp::FBX::MeshGeometry", ptr %this1, i32 0, i32 12
  %m_mappings = getelementptr inbounds %"class.Assimp::FBX::MeshGeometry", ptr %this1, i32 0, i32 13
  call void @_ZN6Assimp3FBX22ResolveVertexDataArrayI9aiColor4tIfEEEvRSt6vectorIT_SaIS5_EERKNS0_5ScopeERKNSt7__cxx1112basic_stringIcSt11char_traitsIcESaIcEEESJ_PKcSL_mRKS4_IjSaIjEESP_SP_(ptr noundef nonnull align 8 dereferenceable(24) %0, ptr noundef nonnull align 8 dereferenceable(48) %1, ptr noundef nonnull align 8 dereferenceable(32) %2, ptr noundef nonnull align 8 dereferenceable(32) %3, ptr noundef @.str.40, ptr noundef @.str.41, i64 noundef %call, ptr noundef nonnull align 8 dereferenceable(24) %m_mapping_counts, ptr noundef nonnull align 8 dereferenceable(24) %m_mapping_offsets, ptr noundef nonnull align 8 dereferenceable(24) %m_mappings)
  ret void
}